target datalayout = "e-m:e-p270:32:32-p271:32:32-p272:64:64-i64:64-i128:128-f80:128-n8:16:32:64-S128"
target triple = "x86_64-pc-linux-gnu"

%struct.Qureg = type { i32, i32, i32, i64, i64, i32, i32, %struct.ComplexArray, %struct.ComplexArray, %struct.ComplexArray, ptr, ptr, ptr, ptr, ptr, ptr }
%struct.ComplexArray = type { ptr, ptr }
%struct.QASMLogger = type { ptr, i32, i32, i32 }
%struct.Complex = type { double, double }
%struct.Vector = type { double, double, double }

; Function Attrs: nounwind uwtable
define void @qasm_recordControlledAxisRotation(ptr noundef byval(%struct.Qureg) align 8 %0, double noundef %1, ptr noundef byval(%struct.Vector) align 8 %2, i32 noundef %3, i32 noundef %4) #0 {
  %6 = alloca double, align 8
  %7 = alloca i32, align 4
  %8 = alloca i32, align 4
  %9 = alloca %struct.Complex, align 8
  %10 = alloca %struct.Complex, align 8
  %11 = alloca double, align 8
  %12 = alloca double, align 8
  %13 = alloca double, align 8
  %14 = alloca [1 x i32], align 4
  %15 = alloca [3 x double], align 16
  store double %1, ptr %6, align 8, !tbaa !29
  store i32 %3, ptr %7, align 4, !tbaa !25
  store i32 %4, ptr %8, align 4, !tbaa !25
  %16 = getelementptr inbounds nuw %struct.Qureg, ptr %0, i32 0, i32 15
  %17 = load ptr, ptr %16, align 8, !tbaa !10
  %18 = getelementptr inbounds nuw %struct.QASMLogger, ptr %17, i32 0, i32 3
  %19 = load i32, ptr %18, align 8, !tbaa !17
  %20 = icmp ne i32 %19, 0
  br i1 %20, label %22, label %21

21:                                               ; preds = %5
  br label %41

22:                                               ; preds = %5
  call void @llvm.lifetime.start.p0(i64 16, ptr %9) #7
  call void @llvm.lifetime.start.p0(i64 16, ptr %10) #7
  %23 = load double, ptr %6, align 8, !tbaa !29
  call void @getComplexPairFromRotation(double noundef %23, ptr noundef byval(%struct.Vector) align 8 %2, ptr noundef %9, ptr noundef %10)
  call void @llvm.lifetime.start.p0(i64 8, ptr %11) #7
  call void @llvm.lifetime.start.p0(i64 8, ptr %12) #7
  call void @llvm.lifetime.start.p0(i64 8, ptr %13) #7
  %24 = getelementptr inbounds nuw { double, double }, ptr %9, i32 0, i32 0
  %25 = load double, ptr %24, align 8
  %26 = getelementptr inbounds nuw { double, double }, ptr %9, i32 0, i32 1
  %27 = load double, ptr %26, align 8
  %28 = getelementptr inbounds nuw { double, double }, ptr %10, i32 0, i32 0
  %29 = load double, ptr %28, align 8
  %30 = getelementptr inbounds nuw { double, double }, ptr %10, i32 0, i32 1
  %31 = load double, ptr %30, align 8
  call void @getZYZRotAnglesFromComplexPair(double %25, double %27, double %29, double %31, ptr noundef %11, ptr noundef %12, ptr noundef %13)
  call void @llvm.lifetime.start.p0(i64 4, ptr %14) #7
  %32 = load i32, ptr %7, align 4, !tbaa !25
  store i32 %32, ptr %14, align 4, !tbaa !25
  call void @llvm.lifetime.start.p0(i64 24, ptr %15) #7
  %33 = load double, ptr %11, align 8, !tbaa !29
  store double %33, ptr %15, align 8, !tbaa !29
  %34 = getelementptr inbounds double, ptr %15, i64 1
  %35 = load double, ptr %12, align 8, !tbaa !29
  store double %35, ptr %34, align 8, !tbaa !29
  %36 = getelementptr inbounds double, ptr %15, i64 2
  %37 = load double, ptr %13, align 8, !tbaa !29
  store double %37, ptr %36, align 8, !tbaa !29
  %38 = getelementptr inbounds [1 x i32], ptr %14, i64 0, i64 0
  %39 = load i32, ptr %8, align 4, !tbaa !25
  %40 = getelementptr inbounds [3 x double], ptr %15, i64 0, i64 0
  call void @addGateToQASM(ptr noundef byval(%struct.Qureg) align 8 %0, i32 noundef 10, ptr noundef %38, i32 noundef 1, i32 noundef %39, ptr noundef %40, i32 noundef 3)
  call void @llvm.lifetime.end.p0(i64 24, ptr %15) #7
  call void @llvm.lifetime.end.p0(i64 4, ptr %14) #7
  call void @llvm.lifetime.end.p0(i64 8, ptr %13) #7
  call void @llvm.lifetime.end.p0(i64 8, ptr %12) #7
  call void @llvm.lifetime.end.p0(i64 8, ptr %11) #7
  call void @llvm.lifetime.end.p0(i64 16, ptr %10) #7
  call void @llvm.lifetime.end.p0(i64 16, ptr %9) #7
  br label %41

41:                                               ; preds = %22, %21
  ret void
}