; Function Attrs: nounwind uwtable
define void @qasm_recordControlledAxisRotation(ptr noundef readonly byval(%struct.Qureg) align 8 captures(none) %0, double noundef %1, ptr noundef readonly byval(%struct.Vector) align 8 captures(none) %2, i32 noundef %3, i32 noundef %4) local_unnamed_addr #0 {
  %6 = alloca %struct.Complex, align 8
  %7 = alloca %struct.Complex, align 8
  %8 = alloca double, align 8
  %9 = alloca double, align 8
  %10 = alloca double, align 8
  %11 = alloca [1 x i32], align 4
  %12 = alloca [3 x double], align 16
  %13 = getelementptr inbounds nuw i8, ptr %0, i64 128
  %14 = load ptr, ptr %13, align 8, !tbaa !4
  %15 = getelementptr inbounds nuw i8, ptr %14, i64 16
  %16 = load i32, ptr %15, align 8, !tbaa !14
  %.not = icmp eq i32 %16, 0
  br i1 %.not, label %29, label %17

17:                                               ; preds = %5
  call void @llvm.lifetime.start.p0(i64 16, ptr nonnull %6) #16
  call void @llvm.lifetime.start.p0(i64 16, ptr nonnull %7) #16
  call void @getComplexPairFromRotation(double noundef %1, ptr noundef nonnull byval(%struct.Vector) align 8 %2, ptr noundef nonnull %6, ptr noundef nonnull %7) #16
  call void @llvm.lifetime.start.p0(i64 8, ptr nonnull %8) #16
  call void @llvm.lifetime.start.p0(i64 8, ptr nonnull %9) #16
  call void @llvm.lifetime.start.p0(i64 8, ptr nonnull %10) #16
  %18 = load double, ptr %6, align 8
  %19 = getelementptr inbounds nuw i8, ptr %6, i64 8
  %20 = load double, ptr %19, align 8
  %21 = load double, ptr %7, align 8
  %22 = getelementptr inbounds nuw i8, ptr %7, i64 8
  %23 = load double, ptr %22, align 8
  call void @getZYZRotAnglesFromComplexPair(double %18, double %20, double %21, double %23, ptr noundef nonnull %8, ptr noundef nonnull %9, ptr noundef nonnull %10) #16
  call void @llvm.lifetime.start.p0(i64 4, ptr nonnull %11) #16
  store i32 %3, ptr %11, align 4, !tbaa !24
  call void @llvm.lifetime.start.p0(i64 24, ptr nonnull %12) #16
  %24 = load double, ptr %8, align 8, !tbaa !22
  store double %24, ptr %12, align 16, !tbaa !22
  %25 = getelementptr inbounds nuw i8, ptr %12, i64 8
  %26 = load double, ptr %9, align 8, !tbaa !22
  store double %26, ptr %25, align 8, !tbaa !22
  %27 = getelementptr inbounds nuw i8, ptr %12, i64 16
  %28 = load double, ptr %10, align 8, !tbaa !22
  store double %28, ptr %27, align 16, !tbaa !22
  call void @addGateToQASM(ptr noundef nonnull byval(%struct.Qureg) align 8 %0, i32 noundef 10, ptr noundef nonnull %11, i32 noundef 1, i32 noundef %4, ptr noundef nonnull %12, i32 noundef 3)
  call void @llvm.lifetime.end.p0(i64 24, ptr nonnull %12) #16
  call void @llvm.lifetime.end.p0(i64 4, ptr nonnull %11) #16
  call void @llvm.lifetime.end.p0(i64 8, ptr nonnull %10) #16
  call void @llvm.lifetime.end.p0(i64 8, ptr nonnull %9) #16
  call void @llvm.lifetime.end.p0(i64 8, ptr nonnull %8) #16
  call void @llvm.lifetime.end.p0(i64 16, ptr nonnull %7) #16
  call void @llvm.lifetime.end.p0(i64 16, ptr nonnull %6) #16
  br label %29

29:                                               ; preds = %5, %17
  ret void
}